target datalayout = "e-m:e-p270:32:32-p271:32:32-p272:64:64-i64:64-i128:128-f80:128-n8:16:32:64-S128"
target triple = "x86_64-pc-linux-gnu"

%"struct.llvm::SubtargetFeatureKV" = type { ptr, ptr, i32, %"class.llvm::FeatureBitArray" }
%"class.llvm::FeatureBitArray" = type { %"class.llvm::FeatureBitset" }
%"class.llvm::FeatureBitset" = type { %"struct.std::array" }
%"struct.std::array" = type { [5 x i64] }
%"struct.llvm::SubtargetSubTypeKV" = type { ptr, %"class.llvm::FeatureBitArray", %"class.llvm::FeatureBitArray", ptr }
%"struct.llvm::MCWriteProcResEntry" = type { i16, i16, i16 }
%"struct.llvm::MCWriteLatencyEntry" = type { i16, i16 }
%"struct.llvm::MCReadAdvanceEntry" = type { i32, i32, i32 }
%"class.llvm::StringRef" = type { ptr, i64 }
%"class.llvm::ArrayRef" = type { ptr, i64 }
%"class.llvm::ArrayRef.0" = type { ptr, i64 }

@_ZN4llvm14RISCVFeatureKVE = external global [0 x %"struct.llvm::SubtargetFeatureKV"], align 8
@_ZN4llvm14RISCVSubTypeKVE = external global [0 x %"struct.llvm::SubtargetSubTypeKV"], align 8
@_ZN4llvm22RISCVWriteProcResTableE = external global [0 x %"struct.llvm::MCWriteProcResEntry"], align 2
@_ZN4llvm22RISCVWriteLatencyTableE = external global [0 x %"struct.llvm::MCWriteLatencyEntry"], align 2
@_ZN4llvm21RISCVReadAdvanceTableE = external global [0 x %"struct.llvm::MCReadAdvanceEntry"], align 4

; Function Attrs: mustprogress nounwind uwtable
define linkonce_odr hidden void @_ZN4llvm8ArrayRefINS_18SubtargetSubTypeKVEEC2EPKS1_m(ptr noundef nonnull align 8 dereferenceable(16) %0, ptr noundef %1, i64 noundef %2) unnamed_addr #0 comdat align 2 {
  %4 = alloca ptr, align 8
  %5 = alloca ptr, align 8
  %6 = alloca i64, align 8
  store ptr %0, ptr %4, align 8
  store ptr %1, ptr %5, align 8
  store i64 %2, ptr %6, align 8
  %7 = load ptr, ptr %4, align 8
  %8 = getelementptr inbounds nuw %"class.llvm::ArrayRef.0", ptr %7, i32 0, i32 0
  %9 = load ptr, ptr %5, align 8
  store ptr %9, ptr %8, align 8
  %10 = getelementptr inbounds nuw %"class.llvm::ArrayRef.0", ptr %7, i32 0, i32 1
  %11 = load i64, ptr %6, align 8
  store i64 %11, ptr %10, align 8
  ret void
}

; Function Attrs: mustprogress nounwind uwtable
define linkonce_odr hidden void @_ZN4llvm8ArrayRefINS_18SubtargetFeatureKVEEC2EPKS1_m(ptr noundef nonnull align 8 dereferenceable(16) %0, ptr noundef %1, i64 noundef %2) unnamed_addr #0 comdat align 2 {
  %4 = alloca ptr, align 8
  %5 = alloca ptr, align 8
  %6 = alloca i64, align 8
  store ptr %0, ptr %4, align 8
  store ptr %1, ptr %5, align 8
  store i64 %2, ptr %6, align 8
  %7 = load ptr, ptr %4, align 8
  %8 = getelementptr inbounds nuw %"class.llvm::ArrayRef", ptr %7, i32 0, i32 0
  %9 = load ptr, ptr %5, align 8
  store ptr %9, ptr %8, align 8
  %10 = getelementptr inbounds nuw %"class.llvm::ArrayRef", ptr %7, i32 0, i32 1
  %11 = load i64, ptr %6, align 8
  store i64 %11, ptr %10, align 8
  ret void
}

; Function Attrs: mustprogress nounwind uwtable
define dso_local void @_ZN4llvm21RISCVGenSubtargetInfoC2ERKNS_6TripleENS_9StringRefES4_S4_(ptr noundef nonnull align 8 dereferenceable(288) %0, ptr noundef nonnull align 8 dereferenceable(56) %1, ptr %2, i64 %3, ptr %4, i64 %5, ptr noundef byval(%"class.llvm::StringRef") align 8 %6) unnamed_addr #0 align 2 {
  %8 = alloca %"class.llvm::StringRef", align 8
  %9 = alloca %"class.llvm::StringRef", align 8
  %10 = alloca ptr, align 8
  %11 = alloca ptr, align 8
  %12 = alloca %"class.llvm::StringRef", align 8
  %13 = alloca %"class.llvm::StringRef", align 8
  %14 = alloca %"class.llvm::StringRef", align 8
  %15 = alloca %"class.llvm::ArrayRef", align 8
  %16 = alloca %"class.llvm::ArrayRef.0", align 8
  %17 = getelementptr inbounds nuw { ptr, i64 }, ptr %8, i32 0, i32 0
  store ptr %2, ptr %17, align 8
  %18 = getelementptr inbounds nuw { ptr, i64 }, ptr %8, i32 0, i32 1
  store i64 %3, ptr %18, align 8
  %19 = getelementptr inbounds nuw { ptr, i64 }, ptr %9, i32 0, i32 0
  store ptr %4, ptr %19, align 8
  %20 = getelementptr inbounds nuw { ptr, i64 }, ptr %9, i32 0, i32 1
  store i64 %5, ptr %20, align 8
  store ptr %0, ptr %10, align 8
  store ptr %1, ptr %11, align 8
  %21 = load ptr, ptr %10, align 8
  %22 = load ptr, ptr %11, align 8
  call void @llvm.memcpy.p0.p0.i64(ptr align 8 %12, ptr align 8 %8, i64 16, i1 false)
  call void @llvm.memcpy.p0.p0.i64(ptr align 8 %13, ptr align 8 %9, i64 16, i1 false)
  call void @llvm.memcpy.p0.p0.i64(ptr align 8 %14, ptr align 8 %6, i64 16, i1 false)
  call void @_ZN4llvm8ArrayRefINS_18SubtargetFeatureKVEEC2EPKS1_m(ptr noundef nonnull align 8 dereferenceable(16) %15, ptr noundef @_ZN4llvm14RISCVFeatureKVE, i64 noundef 247)
  call void @_ZN4llvm8ArrayRefINS_18SubtargetSubTypeKVEEC2EPKS1_m(ptr noundef nonnull align 8 dereferenceable(16) %16, ptr noundef @_ZN4llvm14RISCVSubTypeKVE, i64 noundef 35)
  %23 = getelementptr inbounds nuw { ptr, i64 }, ptr %12, i32 0, i32 0
  %24 = load ptr, ptr %23, align 8
  %25 = getelementptr inbounds nuw { ptr, i64 }, ptr %12, i32 0, i32 1
  %26 = load i64, ptr %25, align 8
  %27 = getelementptr inbounds nuw { ptr, i64 }, ptr %13, i32 0, i32 0
  %28 = load ptr, ptr %27, align 8
  %29 = getelementptr inbounds nuw { ptr, i64 }, ptr %13, i32 0, i32 1
  %30 = load i64, ptr %29, align 8
  call void @_ZN4llvm19TargetSubtargetInfoC2ERKNS_6TripleENS_9StringRefES4_S4_NS_8ArrayRefINS_18SubtargetFeatureKVEEENS5_INS_18SubtargetSubTypeKVEEEPKNS_19MCWriteProcResEntryEPKNS_19MCWriteLatencyEntryEPKNS_18MCReadAdvanceEntryEPKNS_10InstrStageEPKjSN_(ptr noundef nonnull align 8 dereferenceable(288) %21, ptr noundef nonnull align 8 dereferenceable(56) %22, ptr %24, i64 %26, ptr %28, i64 %30, ptr noundef byval(%"class.llvm::StringRef") align 8 %14, ptr noundef byval(%"class.llvm::ArrayRef") align 8 %15, ptr noundef byval(%"class.llvm::ArrayRef.0") align 8 %16, ptr noundef @_ZN4llvm22RISCVWriteProcResTableE, ptr noundef @_ZN4llvm22RISCVWriteLatencyTableE, ptr noundef @_ZN4llvm21RISCVReadAdvanceTableE, ptr noundef null, ptr noundef null, ptr noundef null)
  store ptr getelementptr inbounds inrange(-16, 488) ({ [63 x ptr] }, ptr @_ZTVN4llvm21RISCVGenSubtargetInfoE, i32 0, i32 0, i32 2), ptr %21, align 8
  ret void
}