; Function Attrs: mustprogress nounwind uwtable
define dso_local void @_ZN4llvm21RISCVGenSubtargetInfoC2ERKNS_6TripleENS_9StringRefES4_S4_(ptr noundef nonnull align 8 dereferenceable(288) %0, ptr noundef nonnull align 8 dereferenceable(56) %1, ptr %2, i64 %3, ptr %4, i64 %5, ptr noundef readonly byval(%"class.llvm::StringRef") align 8 captures(none) %6) unnamed_addr #0 align 2 {
  %8 = alloca %"class.llvm::ArrayRef", align 8
  %9 = alloca %"class.llvm::ArrayRef.0", align 8
  store ptr @_ZN4llvm14RISCVFeatureKVE, ptr %8, align 8
  %10 = getelementptr inbounds nuw i8, ptr %8, i64 8
  store i64 247, ptr %10, align 8
  store ptr @_ZN4llvm14RISCVSubTypeKVE, ptr %9, align 8
  %11 = getelementptr inbounds nuw i8, ptr %9, i64 8
  store i64 35, ptr %11, align 8
  tail call void @_ZN4llvm19TargetSubtargetInfoC2ERKNS_6TripleENS_9StringRefES4_S4_NS_8ArrayRefINS_18SubtargetFeatureKVEEENS5_INS_18SubtargetSubTypeKVEEEPKNS_19MCWriteProcResEntryEPKNS_19MCWriteLatencyEntryEPKNS_18MCReadAdvanceEntryEPKNS_10InstrStageEPKjSN_(ptr noundef nonnull align 8 dereferenceable(288) %0, ptr noundef nonnull align 8 dereferenceable(56) %1, ptr %2, i64 %3, ptr %4, i64 %5, ptr noundef nonnull byval(%"class.llvm::StringRef") align 8 %6, ptr noundef nonnull byval(%"class.llvm::ArrayRef") align 8 %8, ptr noundef nonnull byval(%"class.llvm::ArrayRef.0") align 8 %9, ptr noundef nonnull @_ZN4llvm22RISCVWriteProcResTableE, ptr noundef nonnull @_ZN4llvm22RISCVWriteLatencyTableE, ptr noundef nonnull @_ZN4llvm21RISCVReadAdvanceTableE, ptr noundef null, ptr noundef null, ptr noundef null) #21
  store ptr getelementptr inbounds nuw inrange(-16, 488) (i8, ptr @_ZTVN4llvm21RISCVGenSubtargetInfoE, i64 16), ptr %0, align 8
  ret void
}